target datalayout = "e-m:e-p270:32:32-p271:32:32-p272:64:64-i64:64-i128:128-f80:128-n8:16:32:64-S128"
target triple = "x86_64-unknown-linux-gnu"

%"class.std::basic_string_view" = type { i64, ptr }
%"class.std::__cxx11::basic_string" = type { %"struct.std::__cxx11::basic_string<char>::_Alloc_hider", i64, %union.anon }
%"struct.std::__cxx11::basic_string<char>::_Alloc_hider" = type { ptr }
%union.anon = type { i64, [8 x i8] }
%"class.std::__cxx11::basic_stringstream" = type { %"class.std::basic_iostream.base", %"class.std::__cxx11::basic_stringbuf", %"class.std::basic_ios" }
%"class.std::basic_iostream.base" = type { %"class.std::basic_istream.base", %"class.std::basic_ostream.base" }
%"class.std::basic_istream.base" = type { ptr, i64 }
%"class.std::basic_ostream.base" = type { ptr }
%"class.std::__cxx11::basic_stringbuf" = type { %"class.std::basic_streambuf", i32, %"class.std::__cxx11::basic_string" }
%"class.std::basic_streambuf" = type { ptr, ptr, ptr, ptr, ptr, ptr, ptr, %"class.std::locale" }
%"class.std::locale" = type { ptr }
%"class.std::basic_ios" = type { %"class.std::ios_base", ptr, i8, i8, ptr, ptr, ptr, ptr }
%"class.std::ios_base" = type { ptr, i64, i64, i32, i32, i32, ptr, %"struct.std::ios_base::_Words", [8 x %"struct.std::ios_base::_Words"], i32, ptr, %"class.std::locale" }
%"struct.std::ios_base::_Words" = type { ptr, i64 }
%"struct.std::_Setprecision" = type { i32 }

; Function Attrs: mustprogress nounwind uwtable
define linkonce_odr noundef i64 @_ZNKSt17basic_string_viewIcSt11char_traitsIcEE4sizeEv(ptr noundef nonnull align 8 dereferenceable(16) %this) #5 comdat align 2 {
entry:
  %this.addr = alloca ptr, align 8
  store ptr %this, ptr %this.addr, align 8
  %this1 = load ptr, ptr %this.addr, align 8
  %_M_len = getelementptr inbounds %"class.std::basic_string_view", ptr %this1, i32 0, i32 0
  %0 = load i64, ptr %_M_len, align 8
  ret i64 %0
}

; Function Attrs: mustprogress nounwind uwtable
define linkonce_odr noundef ptr @_ZNKSt17basic_string_viewIcSt11char_traitsIcEE4dataEv(ptr noundef nonnull align 8 dereferenceable(16) %this) #5 comdat align 2 {
entry:
  %this.addr = alloca ptr, align 8
  store ptr %this, ptr %this.addr, align 8
  %this1 = load ptr, ptr %this.addr, align 8
  %_M_str = getelementptr inbounds %"class.std::basic_string_view", ptr %this1, i32 0, i32 1
  %0 = load ptr, ptr %_M_str, align 8
  ret ptr %0
}

; Function Attrs: mustprogress uwtable
define linkonce_odr noundef nonnull align 8 dereferenceable(8) ptr @_ZStlsIcSt11char_traitsIcEERSt13basic_ostreamIT_T0_ES6_St17basic_string_viewIS3_S4_E(ptr noundef nonnull align 8 dereferenceable(8) %__os, i64 %__str.coerce0, ptr %__str.coerce1) #0 comdat {
entry:
  %__str = alloca %"class.std::basic_string_view", align 8
  %__os.addr = alloca ptr, align 8
  %0 = getelementptr inbounds { i64, ptr }, ptr %__str, i32 0, i32 0
  store i64 %__str.coerce0, ptr %0, align 8
  %1 = getelementptr inbounds { i64, ptr }, ptr %__str, i32 0, i32 1
  store ptr %__str.coerce1, ptr %1, align 8
  store ptr %__os, ptr %__os.addr, align 8
  %2 = load ptr, ptr %__os.addr, align 8
  %call = call noundef ptr @_ZNKSt17basic_string_viewIcSt11char_traitsIcEE4dataEv(ptr noundef nonnull align 8 dereferenceable(16) %__str) #7
  %call1 = call noundef i64 @_ZNKSt17basic_string_viewIcSt11char_traitsIcEE4sizeEv(ptr noundef nonnull align 8 dereferenceable(16) %__str) #7
  %call2 = call noundef nonnull align 8 dereferenceable(8) ptr @_ZSt16__ostream_insertIcSt11char_traitsIcEERSt13basic_ostreamIT_T0_ES6_PKS3_l(ptr noundef nonnull align 8 dereferenceable(8) %2, ptr noundef %call, i64 noundef %call1)
  ret ptr %call2
}

; Function Attrs: mustprogress nounwind uwtable
define linkonce_odr i32 @_ZSt12setprecisioni(i32 noundef %__n) #5 comdat {
entry:
  %retval = alloca %"struct.std::_Setprecision", align 4
  %__n.addr = alloca i32, align 4
  store i32 %__n, ptr %__n.addr, align 4
  %_M_n = getelementptr inbounds %"struct.std::_Setprecision", ptr %retval, i32 0, i32 0
  %0 = load i32, ptr %__n.addr, align 4
  store i32 %0, ptr %_M_n, align 4
  %coerce.dive = getelementptr inbounds %"struct.std::_Setprecision", ptr %retval, i32 0, i32 0
  %1 = load i32, ptr %coerce.dive, align 4
  ret i32 %1
}

; Function Attrs: mustprogress uwtable
define internal void @_ZN8facebook5velox12_GLOBAL__N_113succinctPrintB5cxx11EmPKSt17basic_string_viewIcSt11char_traitsIcEEiiii(ptr noalias sret(%"class.std::__cxx11::basic_string") align 8 %agg.result, i64 noundef %value, ptr noundef %units, i32 noundef %unitsSize, i32 noundef %unitOffset, i32 noundef %unitScale, i32 noundef %precision) #0 personality ptr @__gxx_personality_v0 {
entry:
  %result.ptr = alloca ptr, align 8
  %value.addr = alloca i64, align 8
  %units.addr = alloca ptr, align 8
  %unitsSize.addr = alloca i32, align 4
  %unitOffset.addr = alloca i32, align 4
  %unitScale.addr = alloca i32, align 4
  %precision.addr = alloca i32, align 4
  %out = alloca %"class.std::__cxx11::basic_stringstream", align 8
  %offset = alloca i32, align 4
  %decimalValue = alloca double, align 8
  %exn.slot = alloca ptr, align 8
  %ehselector.slot = alloca i32, align 4
  %agg.tmp = alloca %"struct.std::_Setprecision", align 4
  %agg.tmp13 = alloca %"class.std::basic_string_view", align 8
  store ptr %agg.result, ptr %result.ptr, align 8
  store i64 %value, ptr %value.addr, align 8
  store ptr %units, ptr %units.addr, align 8
  store i32 %unitsSize, ptr %unitsSize.addr, align 4
  store i32 %unitOffset, ptr %unitOffset.addr, align 4
  store i32 %unitScale, ptr %unitScale.addr, align 4
  store i32 %precision, ptr %precision.addr, align 4
  call void @_ZNSt7__cxx1118basic_stringstreamIcSt11char_traitsIcESaIcEEC1Ev(ptr noundef nonnull align 8 dereferenceable(128) %out)
  %0 = load i32, ptr %unitOffset.addr, align 4
  store i32 %0, ptr %offset, align 4
  %1 = load i64, ptr %value.addr, align 8
  %conv = uitofp i64 %1 to double
  store double %conv, ptr %decimalValue, align 8
  br label %while.cond

while.cond:                                       ; preds = %while.body, %entry
  %2 = load double, ptr %decimalValue, align 8
  %3 = load i32, ptr %unitScale.addr, align 4
  %conv1 = sitofp i32 %3 to double
  %div = fdiv double %2, %conv1
  %cmp = fcmp oge double %div, 1.000000e+00
  br i1 %cmp, label %land.rhs, label %land.end

land.rhs:                                         ; preds = %while.cond
  %4 = load i32, ptr %offset, align 4
  %5 = load i32, ptr %unitsSize.addr, align 4
  %sub = sub nsw i32 %5, 1
  %cmp2 = icmp slt i32 %4, %sub
  br label %land.end

land.end:                                         ; preds = %land.rhs, %while.cond
  %6 = phi i1 [ false, %while.cond ], [ %cmp2, %land.rhs ]
  br i1 %6, label %while.body, label %while.end

while.body:                                       ; preds = %land.end
  %7 = load double, ptr %decimalValue, align 8
  %8 = load i32, ptr %unitScale.addr, align 4
  %conv3 = sitofp i32 %8 to double
  %div4 = fdiv double %7, %conv3
  store double %div4, ptr %decimalValue, align 8
  %9 = load i32, ptr %offset, align 4
  %inc = add nsw i32 %9, 1
  store i32 %inc, ptr %offset, align 4
  br label %while.cond, !llvm.loop !4

while.end:                                        ; preds = %land.end
  %10 = load i32, ptr %offset, align 4
  %11 = load i32, ptr %unitOffset.addr, align 4
  %cmp5 = icmp eq i32 %10, %11
  br i1 %cmp5, label %if.then, label %if.end

if.then:                                          ; preds = %while.end
  store i32 0, ptr %precision.addr, align 4
  br label %if.end

if.end:                                           ; preds = %if.then, %while.end
  %add.ptr = getelementptr inbounds i8, ptr %out, i64 16
  %call = invoke noundef nonnull align 8 dereferenceable(8) ptr @_ZNSolsEPFRSt8ios_baseS0_E(ptr noundef nonnull align 8 dereferenceable(8) %add.ptr, ptr noundef @_ZSt5fixedRSt8ios_base)
          to label %invoke.cont unwind label %lpad

invoke.cont:                                      ; preds = %if.end
  %12 = load i32, ptr %precision.addr, align 4
  %call7 = invoke i32 @_ZSt12setprecisioni(i32 noundef %12)
          to label %invoke.cont6 unwind label %lpad

invoke.cont6:                                     ; preds = %invoke.cont
  %coerce.dive = getelementptr inbounds %"struct.std::_Setprecision", ptr %agg.tmp, i32 0, i32 0
  store i32 %call7, ptr %coerce.dive, align 4
  %coerce.dive8 = getelementptr inbounds %"struct.std::_Setprecision", ptr %agg.tmp, i32 0, i32 0
  %13 = load i32, ptr %coerce.dive8, align 4
  %call10 = invoke noundef nonnull align 8 dereferenceable(8) ptr @_ZStlsIcSt11char_traitsIcEERSt13basic_ostreamIT_T0_ES6_St13_Setprecision(ptr noundef nonnull align 8 dereferenceable(8) %call, i32 %13)
          to label %invoke.cont9 unwind label %lpad

invoke.cont9:                                     ; preds = %invoke.cont6
  %14 = load double, ptr %decimalValue, align 8
  %call12 = invoke noundef nonnull align 8 dereferenceable(8) ptr @_ZNSolsEd(ptr noundef nonnull align 8 dereferenceable(8) %call10, double noundef %14)
          to label %invoke.cont11 unwind label %lpad

invoke.cont11:                                    ; preds = %invoke.cont9
  %15 = load ptr, ptr %units.addr, align 8
  %16 = load i32, ptr %offset, align 4
  %idxprom = sext i32 %16 to i64
  %arrayidx = getelementptr inbounds %"class.std::basic_string_view", ptr %15, i64 %idxprom
  call void @llvm.memcpy.p0.p0.i64(ptr align 8 %agg.tmp13, ptr align 8 %arrayidx, i64 16, i1 false)
  %17 = getelementptr inbounds { i64, ptr }, ptr %agg.tmp13, i32 0, i32 0
  %18 = load i64, ptr %17, align 8
  %19 = getelementptr inbounds { i64, ptr }, ptr %agg.tmp13, i32 0, i32 1
  %20 = load ptr, ptr %19, align 8
  %call15 = invoke noundef nonnull align 8 dereferenceable(8) ptr @_ZStlsIcSt11char_traitsIcEERSt13basic_ostreamIT_T0_ES6_St17basic_string_viewIS3_S4_E(ptr noundef nonnull align 8 dereferenceable(8) %call12, i64 %18, ptr %20)
          to label %invoke.cont14 unwind label %lpad

invoke.cont14:                                    ; preds = %invoke.cont11
  invoke void @_ZNKSt7__cxx1118basic_stringstreamIcSt11char_traitsIcESaIcEE3strEv(ptr sret(%"class.std::__cxx11::basic_string") align 8 %agg.result, ptr noundef nonnull align 8 dereferenceable(128) %out)
          to label %invoke.cont16 unwind label %lpad

invoke.cont16:                                    ; preds = %invoke.cont14
  call void @_ZNSt7__cxx1118basic_stringstreamIcSt11char_traitsIcESaIcEED1Ev(ptr noundef nonnull align 8 dereferenceable(128) %out) #7
  ret void

lpad:                                             ; preds = %invoke.cont14, %invoke.cont11, %invoke.cont9, %invoke.cont6, %invoke.cont, %if.end
  %21 = landingpad { ptr, i32 }
          cleanup
  %22 = extractvalue { ptr, i32 } %21, 0
  store ptr %22, ptr %exn.slot, align 8
  %23 = extractvalue { ptr, i32 } %21, 1
  store i32 %23, ptr %ehselector.slot, align 4
  call void @_ZNSt7__cxx1118basic_stringstreamIcSt11char_traitsIcESaIcEED1Ev(ptr noundef nonnull align 8 dereferenceable(128) %out) #7
  br label %eh.resume

eh.resume:                                        ; preds = %lpad
  %exn = load ptr, ptr %exn.slot, align 8
  %sel = load i32, ptr %ehselector.slot, align 4
  %lpad.val = insertvalue { ptr, i32 } poison, ptr %exn, 0
  %lpad.val17 = insertvalue { ptr, i32 } %lpad.val, i32 %sel, 1
  resume { ptr, i32 } %lpad.val17
}