; Function Attrs: mustprogress uwtable
define internal fastcc void @_ZN8facebook5velox12_GLOBAL__N_113succinctPrintB5cxx11EmPKSt17basic_string_viewIcSt11char_traitsIcEEiiii(ptr noalias align 8 %agg.result, i64 noundef %value, ptr noundef readonly captures(none) %units, i32 noundef range(i32 4, 6) %unitsSize, i32 noundef range(i32 0, 3) %unitOffset, i32 noundef range(i32 1000, 1025) %unitScale, i32 noundef %precision) unnamed_addr #0 personality ptr @__gxx_personality_v0 {
entry:
  %out = alloca %"class.std::__cxx11::basic_stringstream", align 8
  call void @_ZNSt7__cxx1118basic_stringstreamIcSt11char_traitsIcESaIcEEC1Ev(ptr noundef nonnull align 8 dereferenceable(128) %out)
  %conv = uitofp i64 %value to double
  %conv1 = uitofp nneg i32 %unitScale to double
  %sub = add nsw i32 %unitsSize, -1
  br label %while.cond

while.cond:                                       ; preds = %while.cond, %entry
  %decimalValue.0 = phi double [ %conv, %entry ], [ %div, %while.cond ]
  %offset.0 = phi i32 [ %unitOffset, %entry ], [ %inc, %while.cond ]
  %div = fdiv double %decimalValue.0, %conv1
  %cmp = fcmp oge double %div, 1.000000e+00
  %cmp2 = icmp samesign ult i32 %offset.0, %sub
  %0 = select i1 %cmp, i1 %cmp2, i1 false
  %inc = add nuw nsw i32 %offset.0, 1
  br i1 %0, label %while.cond, label %while.end, !llvm.loop !7

while.end:                                        ; preds = %while.cond
  %add.ptr = getelementptr inbounds nuw i8, ptr %out, i64 16
  %call = invoke noundef nonnull align 8 dereferenceable(8) ptr @_ZNSolsEPFRSt8ios_baseS0_E(ptr noundef nonnull align 8 dereferenceable(8) %add.ptr, ptr noundef nonnull @_ZSt5fixedRSt8ios_base)
          to label %invoke.cont unwind label %lpad

invoke.cont:                                      ; preds = %while.end
  %cmp5 = icmp eq i32 %offset.0, %unitOffset
  %spec.select = select i1 %cmp5, i32 0, i32 %precision
  %call10 = invoke noundef nonnull align 8 dereferenceable(8) ptr @_ZStlsIcSt11char_traitsIcEERSt13basic_ostreamIT_T0_ES6_St13_Setprecision(ptr noundef nonnull align 8 dereferenceable(8) %call, i32 %spec.select)
          to label %invoke.cont9 unwind label %lpad

invoke.cont9:                                     ; preds = %invoke.cont
  %call12 = invoke noundef nonnull align 8 dereferenceable(8) ptr @_ZNSolsEd(ptr noundef nonnull align 8 dereferenceable(8) %call10, double noundef %decimalValue.0)
          to label %invoke.cont11 unwind label %lpad

invoke.cont11:                                    ; preds = %invoke.cont9
  %idxprom = zext nneg i32 %offset.0 to i64
  %arrayidx = getelementptr inbounds nuw %"class.std::basic_string_view", ptr %units, i64 %idxprom
  %agg.tmp13.sroa.0.0.copyload = load i64, ptr %arrayidx, align 8
  %agg.tmp13.sroa.2.0.arrayidx.sroa_idx = getelementptr inbounds nuw i8, ptr %arrayidx, i64 8
  %agg.tmp13.sroa.2.0.copyload = load ptr, ptr %agg.tmp13.sroa.2.0.arrayidx.sroa_idx, align 8
  %call2.i8 = invoke noundef nonnull align 8 dereferenceable(8) ptr @_ZSt16__ostream_insertIcSt11char_traitsIcEERSt13basic_ostreamIT_T0_ES6_PKS3_l(ptr noundef nonnull align 8 dereferenceable(8) %call12, ptr noundef %agg.tmp13.sroa.2.0.copyload, i64 noundef %agg.tmp13.sroa.0.0.copyload)
          to label %invoke.cont14 unwind label %lpad

invoke.cont14:                                    ; preds = %invoke.cont11
  invoke void @_ZNKSt7__cxx1118basic_stringstreamIcSt11char_traitsIcESaIcEE3strEv(ptr sret(%"class.std::__cxx11::basic_string") align 8 %agg.result, ptr noundef nonnull align 8 dereferenceable(128) %out)
          to label %invoke.cont16 unwind label %lpad

invoke.cont16:                                    ; preds = %invoke.cont14
  call void @_ZNSt7__cxx1118basic_stringstreamIcSt11char_traitsIcESaIcEED1Ev(ptr noundef nonnull align 8 dereferenceable(128) %out) #5
  ret void

lpad:                                             ; preds = %invoke.cont11, %invoke.cont14, %invoke.cont9, %invoke.cont, %while.end
  %1 = landingpad { ptr, i32 }
          cleanup
  call void @_ZNSt7__cxx1118basic_stringstreamIcSt11char_traitsIcESaIcEED1Ev(ptr noundef nonnull align 8 dereferenceable(128) %out) #5
  resume { ptr, i32 } %1
}